target datalayout = "e-m:e-p270:32:32-p271:32:32-p272:64:64-i64:64-i128:128-f80:128-n8:16:32:64-S128"
target triple = "x86_64-pc-linux-gnu"

%struct.ProcSignalHeader = type { %struct.pg_atomic_uint64, [0 x %struct.ProcSignalSlot] }
%struct.pg_atomic_uint64 = type { i64 }
%struct.ProcSignalSlot = type { %struct.pg_atomic_uint32, i8, i32, [14 x i32], i8, %struct.pg_atomic_uint64, %struct.pg_atomic_uint32, %struct.ConditionVariable }
%struct.pg_atomic_uint32 = type { i32 }
%struct.ConditionVariable = type { i8, %struct.proclist_head }
%struct.proclist_head = type { i32, i32 }

@MaxBackends = external global i32, align 4
@ProcSignal = internal global ptr null, align 8
@.str.2 = private unnamed_addr constant [13 x i8] c"procsignal.c\00", align 1
@__func__.EmitProcSignalBarrier = private unnamed_addr constant [22 x i8] c"EmitProcSignalBarrier\00", align 1

; Function Attrs: inlinehint nounwind uwtable
define internal i64 @pg_atomic_fetch_add_u64_impl(ptr noundef %0, i64 noundef %1) #3 {
  %3 = alloca ptr, align 8
  %4 = alloca i64, align 8
  %5 = alloca i64, align 8
  store ptr %0, ptr %3, align 8
  store i64 %1, ptr %4, align 8
  call void @llvm.lifetime.start.p0(i64 8, ptr %5) #11
  %6 = load ptr, ptr %3, align 8
  %7 = getelementptr inbounds nuw %struct.pg_atomic_uint64, ptr %6, i32 0, i32 0
  %8 = load i64, ptr %4, align 8
  %9 = load ptr, ptr %3, align 8
  %10 = getelementptr inbounds nuw %struct.pg_atomic_uint64, ptr %9, i32 0, i32 0
  %11 = call i64 asm sideeffect "\09lock\09\09\09\09\0A\09xaddq\09$0,$1\09\09\0A", "=q,=*m,0,*m,~{memory},~{cc},~{dirflag},~{fpsr},~{flags}"(ptr elementtype(i64) %7, i64 %8, ptr elementtype(i64) %10) #11, !srcloc !32
  store i64 %11, ptr %5, align 8
  %12 = load i64, ptr %5, align 8
  call void @llvm.lifetime.end.p0(i64 8, ptr %5) #11
  ret i64 %12
}

; Function Attrs: inlinehint nounwind uwtable
define internal i32 @pg_atomic_read_u32_impl(ptr noundef %0) #3 {
  %2 = alloca ptr, align 8
  store ptr %0, ptr %2, align 8
  %3 = load ptr, ptr %2, align 8
  %4 = getelementptr inbounds nuw %struct.pg_atomic_uint32, ptr %3, i32 0, i32 0
  %5 = load volatile i32, ptr %4, align 4
  ret i32 %5
}

; Function Attrs: inlinehint nounwind uwtable
define internal i64 @pg_atomic_add_fetch_u64_impl(ptr noundef %0, i64 noundef %1) #3 {
  %3 = alloca ptr, align 8
  %4 = alloca i64, align 8
  store ptr %0, ptr %3, align 8
  store i64 %1, ptr %4, align 8
  %5 = load ptr, ptr %3, align 8
  %6 = load i64, ptr %4, align 8
  %7 = call i64 @pg_atomic_fetch_add_u64_impl(ptr noundef %5, i64 noundef %6)
  %8 = load i64, ptr %4, align 8
  %9 = add i64 %7, %8
  ret i64 %9
}

; Function Attrs: inlinehint nounwind uwtable
define internal i32 @pg_atomic_fetch_or_u32_impl(ptr noundef %0, i32 noundef %1) #3 {
  %3 = alloca ptr, align 8
  %4 = alloca i32, align 4
  store ptr %0, ptr %3, align 8
  store i32 %1, ptr %4, align 4
  %5 = load ptr, ptr %3, align 8
  %6 = getelementptr inbounds nuw %struct.pg_atomic_uint32, ptr %5, i32 0, i32 0
  %7 = load i32, ptr %4, align 4
  %8 = atomicrmw or ptr %6, i32 %7 seq_cst, align 4
  ret i32 %8
}

; Function Attrs: inlinehint nounwind uwtable
define internal i32 @tas(ptr noundef %0) #3 {
  %2 = alloca ptr, align 8
  %3 = alloca i8, align 1
  store ptr %0, ptr %2, align 8
  call void @llvm.lifetime.start.p0(i64 1, ptr %3) #11
  store i8 1, ptr %3, align 1
  %4 = load i8, ptr %3, align 1
  %5 = load ptr, ptr %2, align 8
  %6 = call i8 asm sideeffect "\09lock\09\09\09\0A\09xchgb\09$0,$1\09\0A", "=q,=*m,0,*m,~{memory},~{cc},~{dirflag},~{fpsr},~{flags}"(ptr elementtype(i8) %5, i8 %4, ptr elementtype(i8) %5) #11, !srcloc !13
  store i8 %6, ptr %3, align 1
  %7 = load i8, ptr %3, align 1
  %8 = zext i8 %7 to i32
  call void @llvm.lifetime.end.p0(i64 1, ptr %3) #11
  ret i32 %8
}

; Function Attrs: inlinehint nounwind uwtable
define internal i32 @pg_atomic_read_u32(ptr noundef %0) #3 {
  %2 = alloca ptr, align 8
  store ptr %0, ptr %2, align 8
  %3 = load ptr, ptr %2, align 8
  %4 = call i32 @pg_atomic_read_u32_impl(ptr noundef %3)
  ret i32 %4
}

; Function Attrs: inlinehint nounwind uwtable
define internal i64 @pg_atomic_add_fetch_u64(ptr noundef %0, i64 noundef %1) #3 {
  %3 = alloca ptr, align 8
  %4 = alloca i64, align 8
  store ptr %0, ptr %3, align 8
  store i64 %1, ptr %4, align 8
  %5 = load ptr, ptr %3, align 8
  %6 = load i64, ptr %4, align 8
  %7 = call i64 @pg_atomic_add_fetch_u64_impl(ptr noundef %5, i64 noundef %6)
  ret i64 %7
}

; Function Attrs: inlinehint nounwind uwtable
define internal i32 @pg_atomic_fetch_or_u32(ptr noundef %0, i32 noundef %1) #3 {
  %3 = alloca ptr, align 8
  %4 = alloca i32, align 4
  store ptr %0, ptr %3, align 8
  store i32 %1, ptr %4, align 4
  %5 = load ptr, ptr %3, align 8
  %6 = load i32, ptr %4, align 4
  %7 = call i32 @pg_atomic_fetch_or_u32_impl(ptr noundef %5, i32 noundef %6)
  ret i32 %7
}

; Function Attrs: nounwind uwtable
define dso_local i64 @EmitProcSignalBarrier(i32 noundef %0) #0 {
  %2 = alloca i32, align 4
  %3 = alloca i32, align 4
  %4 = alloca i64, align 8
  %5 = alloca i32, align 4
  %6 = alloca ptr, align 8
  %7 = alloca i32, align 4
  %8 = alloca ptr, align 8
  %9 = alloca i32, align 4
  store i32 %0, ptr %2, align 4
  call void @llvm.lifetime.start.p0(i64 4, ptr %3) #11
  %10 = load i32, ptr %2, align 4
  %11 = shl i32 1, %10
  store i32 %11, ptr %3, align 4
  call void @llvm.lifetime.start.p0(i64 8, ptr %4) #11
  call void @llvm.lifetime.start.p0(i64 4, ptr %5) #11
  store i32 0, ptr %5, align 4
  br label %12

12:                                               ; preds = %28, %1
  %13 = load i32, ptr %5, align 4
  %14 = load i32, ptr @MaxBackends, align 4
  %15 = add i32 %14, 6
  %16 = icmp slt i32 %13, %15
  br i1 %16, label %18, label %17

17:                                               ; preds = %12
  call void @llvm.lifetime.end.p0(i64 4, ptr %5) #11
  br label %31

18:                                               ; preds = %12
  call void @llvm.lifetime.start.p0(i64 8, ptr %6) #11
  %19 = load ptr, ptr @ProcSignal, align 8
  %20 = getelementptr inbounds nuw %struct.ProcSignalHeader, ptr %19, i32 0, i32 1
  %21 = load i32, ptr %5, align 4
  %22 = sext i32 %21 to i64
  %23 = getelementptr inbounds [0 x %struct.ProcSignalSlot], ptr %20, i64 0, i64 %22
  store ptr %23, ptr %6, align 8
  %24 = load ptr, ptr %6, align 8
  %25 = getelementptr inbounds nuw %struct.ProcSignalSlot, ptr %24, i32 0, i32 6
  %26 = load i32, ptr %3, align 4
  %27 = call i32 @pg_atomic_fetch_or_u32(ptr noundef %25, i32 noundef %26)
  call void @llvm.lifetime.end.p0(i64 8, ptr %6) #11
  br label %28

28:                                               ; preds = %18
  %29 = load i32, ptr %5, align 4
  %30 = add i32 %29, 1
  store i32 %30, ptr %5, align 4
  br label %12, !llvm.loop !21

31:                                               ; preds = %17
  %32 = load ptr, ptr @ProcSignal, align 8
  %33 = getelementptr inbounds nuw %struct.ProcSignalHeader, ptr %32, i32 0, i32 0
  %34 = call i64 @pg_atomic_add_fetch_u64(ptr noundef %33, i64 noundef 1)
  store i64 %34, ptr %4, align 8
  call void @llvm.lifetime.start.p0(i64 4, ptr %7) #11
  %35 = load i32, ptr @MaxBackends, align 4
  %36 = add i32 %35, 6
  %37 = sub i32 %36, 1
  store i32 %37, ptr %7, align 4
  br label %38

38:                                               ; preds = %88, %31
  %39 = load i32, ptr %7, align 4
  %40 = icmp sge i32 %39, 0
  br i1 %40, label %42, label %41

41:                                               ; preds = %38
  call void @llvm.lifetime.end.p0(i64 4, ptr %7) #11
  br label %91

42:                                               ; preds = %38
  call void @llvm.lifetime.start.p0(i64 8, ptr %8) #11
  %43 = load ptr, ptr @ProcSignal, align 8
  %44 = getelementptr inbounds nuw %struct.ProcSignalHeader, ptr %43, i32 0, i32 1
  %45 = load i32, ptr %7, align 4
  %46 = sext i32 %45 to i64
  %47 = getelementptr inbounds [0 x %struct.ProcSignalSlot], ptr %44, i64 0, i64 %46
  store ptr %47, ptr %8, align 8
  call void @llvm.lifetime.start.p0(i64 4, ptr %9) #11
  %48 = load ptr, ptr %8, align 8
  %49 = getelementptr inbounds nuw %struct.ProcSignalSlot, ptr %48, i32 0, i32 0
  %50 = call i32 @pg_atomic_read_u32(ptr noundef %49)
  store i32 %50, ptr %9, align 4
  %51 = load i32, ptr %9, align 4
  %52 = icmp ne i32 %51, 0
  br i1 %52, label %53, label %87

53:                                               ; preds = %42
  %54 = load ptr, ptr %8, align 8
  %55 = getelementptr inbounds nuw %struct.ProcSignalSlot, ptr %54, i32 0, i32 4
  %56 = call i32 @tas(ptr noundef %55)
  %57 = icmp ne i32 %56, 0
  br i1 %57, label %58, label %62

58:                                               ; preds = %53
  %59 = load ptr, ptr %8, align 8
  %60 = getelementptr inbounds nuw %struct.ProcSignalSlot, ptr %59, i32 0, i32 4
  %61 = call i32 @s_lock(ptr noundef %60, ptr noundef @.str.2, i32 noundef 399, ptr noundef @__func__.EmitProcSignalBarrier)
  br label %63

62:                                               ; preds = %53
  br label %63

63:                                               ; preds = %62, %58
  %64 = load ptr, ptr %8, align 8
  %65 = getelementptr inbounds nuw %struct.ProcSignalSlot, ptr %64, i32 0, i32 0
  %66 = call i32 @pg_atomic_read_u32(ptr noundef %65)
  store i32 %66, ptr %9, align 4
  %67 = load i32, ptr %9, align 4
  %68 = icmp ne i32 %67, 0
  br i1 %68, label %69, label %80

69:                                               ; preds = %63
  %70 = load ptr, ptr %8, align 8
  %71 = getelementptr inbounds nuw %struct.ProcSignalSlot, ptr %70, i32 0, i32 3
  %72 = getelementptr inbounds [14 x i32], ptr %71, i64 0, i64 4
  store volatile i32 1, ptr %72, align 4
  br label %73

73:                                               ; preds = %69
  call void asm sideeffect "", "~{memory},~{dirflag},~{fpsr},~{flags}"() #11, !srcloc !22
  %74 = load ptr, ptr %8, align 8
  %75 = getelementptr inbounds nuw %struct.ProcSignalSlot, ptr %74, i32 0, i32 4
  store volatile i8 0, ptr %75, align 4
  br label %76

76:                                               ; preds = %73
  br label %77

77:                                               ; preds = %76
  %78 = load i32, ptr %9, align 4
  %79 = call i32 @kill(i32 noundef %78, i32 noundef 10) #11
  br label %86

80:                                               ; preds = %63
  br label %81

81:                                               ; preds = %80
  call void asm sideeffect "", "~{memory},~{dirflag},~{fpsr},~{flags}"() #11, !srcloc !23
  %82 = load ptr, ptr %8, align 8
  %83 = getelementptr inbounds nuw %struct.ProcSignalSlot, ptr %82, i32 0, i32 4
  store volatile i8 0, ptr %83, align 4
  br label %84

84:                                               ; preds = %81
  br label %85

85:                                               ; preds = %84
  br label %86

86:                                               ; preds = %85, %77
  br label %87

87:                                               ; preds = %86, %42
  call void @llvm.lifetime.end.p0(i64 4, ptr %9) #11
  call void @llvm.lifetime.end.p0(i64 8, ptr %8) #11
  br label %88

88:                                               ; preds = %87
  %89 = load i32, ptr %7, align 4
  %90 = add i32 %89, -1
  store i32 %90, ptr %7, align 4
  br label %38, !llvm.loop !24

91:                                               ; preds = %41
  %92 = load i64, ptr %4, align 8
  call void @llvm.lifetime.end.p0(i64 8, ptr %4) #11
  call void @llvm.lifetime.end.p0(i64 4, ptr %3) #11
  ret i64 %92
}