; Function Attrs: nounwind uwtable
define dso_local i64 @EmitProcSignalBarrier(i32 noundef %0) local_unnamed_addr #0 {
  %2 = shl nuw i32 1, %0
  %3 = load i32, ptr @MaxBackends, align 4
  %4 = add i32 %3, 6
  %5 = icmp sgt i32 %4, 0
  br i1 %5, label %.lr.ph, label %._crit_edge

._crit_edge:                                      ; preds = %.lr.ph, %1
  %6 = load ptr, ptr @ProcSignal, align 8
  %7 = tail call i64 asm sideeffect "\09lock\09\09\09\09\0A\09xaddq\09$0,$1\09\09\0A", "=q,=*m,0,*m,~{memory},~{cc},~{dirflag},~{fpsr},~{flags}"(ptr elementtype(i64) %6, i64 1, ptr elementtype(i64) %6) #11, !srcloc !19
  %8 = load i32, ptr @MaxBackends, align 4
  %9 = add i32 %8, 5
  %10 = icmp sgt i32 %9, -1
  br i1 %10, label %.lr.ph26.preheader, label %._crit_edge27

.lr.ph26.preheader:                               ; preds = %._crit_edge
  %11 = zext nneg i32 %9 to i64
  br label %.lr.ph26

.lr.ph:                                           ; preds = %1, %.lr.ph
  %indvars.iv = phi i64 [ %indvars.iv.next, %.lr.ph ], [ 0, %1 ]
  %12 = load ptr, ptr @ProcSignal, align 8
  %.idx = mul nuw nsw i64 %indvars.iv, 96
  %13 = getelementptr i8, ptr %12, i64 88
  %14 = getelementptr i8, ptr %13, i64 %.idx
  %15 = atomicrmw or ptr %14, i32 %2 seq_cst, align 4
  %indvars.iv.next = add nuw nsw i64 %indvars.iv, 1
  %16 = load i32, ptr @MaxBackends, align 4
  %17 = add i32 %16, 6
  %18 = sext i32 %17 to i64
  %19 = icmp slt i64 %indvars.iv.next, %18
  br i1 %19, label %.lr.ph, label %._crit_edge, !llvm.loop !20

._crit_edge27:                                    ; preds = %36, %._crit_edge
  %20 = add i64 %7, 1
  ret i64 %20

.lr.ph26:                                         ; preds = %.lr.ph26.preheader, %36
  %indvars.iv29 = phi i64 [ %11, %.lr.ph26.preheader ], [ %indvars.iv.next30, %36 ]
  %21 = load ptr, ptr @ProcSignal, align 8
  %22 = getelementptr inbounds nuw i8, ptr %21, i64 8
  %23 = getelementptr inbounds nuw [0 x %struct.ProcSignalSlot], ptr %22, i64 0, i64 %indvars.iv29
  %24 = load volatile i32, ptr %23, align 4
  %.not = icmp eq i32 %24, 0
  br i1 %.not, label %36, label %25

25:                                               ; preds = %.lr.ph26
  %26 = getelementptr inbounds nuw i8, ptr %23, i64 68
  %27 = tail call i8 asm sideeffect "\09lock\09\09\09\0A\09xchgb\09$0,$1\09\0A", "=q,=*m,0,*m,~{memory},~{cc},~{dirflag},~{fpsr},~{flags}"(ptr nonnull elementtype(i8) %26, i8 1, ptr nonnull elementtype(i8) %26) #11, !srcloc !9
  %.not21 = icmp eq i8 %27, 0
  br i1 %.not21, label %30, label %28

28:                                               ; preds = %25
  %29 = tail call i32 @s_lock(ptr noundef nonnull %26, ptr noundef nonnull @.str.2, i32 noundef 399, ptr noundef nonnull @__func__.EmitProcSignalBarrier) #11
  br label %30

30:                                               ; preds = %25, %28
  %31 = load volatile i32, ptr %23, align 4
  %.not22 = icmp eq i32 %31, 0
  br i1 %.not22, label %35, label %32

32:                                               ; preds = %30
  %33 = getelementptr inbounds nuw i8, ptr %23, i64 28
  store volatile i32 1, ptr %33, align 4
  tail call void asm sideeffect "", "~{memory},~{dirflag},~{fpsr},~{flags}"() #11, !srcloc !21
  store volatile i8 0, ptr %26, align 4
  %34 = tail call i32 @kill(i32 noundef %31, i32 noundef 10) #11
  br label %36

35:                                               ; preds = %30
  tail call void asm sideeffect "", "~{memory},~{dirflag},~{fpsr},~{flags}"() #11, !srcloc !22
  store volatile i8 0, ptr %26, align 4
  br label %36

36:                                               ; preds = %32, %35, %.lr.ph26
  %indvars.iv.next30 = add nsw i64 %indvars.iv29, -1
  %37 = icmp sgt i64 %indvars.iv29, 0
  br i1 %37, label %.lr.ph26, label %._crit_edge27, !llvm.loop !23
}